target datalayout = "e-m:e-p270:32:32-p271:32:32-p272:64:64-i64:64-f80:128-n8:16:32:64-S128"
target triple = "x86_64-pc-linux-gnu"

@.str = private unnamed_addr constant [3 x i8] c"%d\00", align 1
@.str.1 = private unnamed_addr constant [3 x i8] c"%s\00", align 1
@.str.2 = private unnamed_addr constant [4 x i8] c"NO\0A\00", align 1
@.str.3 = private unnamed_addr constant [4 x i8] c"%d\0A\00", align 1
@.str.4 = private unnamed_addr constant [4 x i8] c"%s\0A\00", align 1

; Function Attrs: noinline nounwind uwtable
define dso_local void @main() #0 {
  %1 = alloca i32, align 4
  %2 = alloca i32, align 4
  %3 = alloca [500 x i32], align 16
  %4 = alloca i32, align 4
  %5 = alloca i32, align 4
  %6 = alloca i32, align 4
  %7 = alloca i32, align 4
  %8 = alloca [500 x i8], align 16
  %9 = alloca [500 x [6 x i8]], align 16
  %10 = bitcast [500 x i32]* %3 to i8*
  call void @llvm.memset.p0i8.i64(i8* align 16 %10, i8 0, i64 2000, i1 false)
  %11 = call i32 (i8*, ...) @__isoc99_scanf(i8* getelementptr inbounds ([3 x i8], [3 x i8]* @.str, i64 0, i64 0), i32* %1)
  %12 = getelementptr inbounds [500 x i8], [500 x i8]* %8, i64 0, i64 0
  %13 = call i32 (i8*, ...) @__isoc99_scanf(i8* getelementptr inbounds ([3 x i8], [3 x i8]* @.str.1, i64 0, i64 0), i8* %12)
  %14 = getelementptr inbounds [500 x i8], [500 x i8]* %8, i64 0, i64 0
  %15 = call i64 @strlen(i8* %14) #4
  %16 = trunc i64 %15 to i32
  store i32 %16, i32* %2, align 4
  store i32 0, i32* %4, align 4
  br label %17

17:                                               ; preds = %52, %0
  %18 = load i32, i32* %4, align 4
  %19 = load i32, i32* %2, align 4
  %20 = load i32, i32* %1, align 4
  %21 = sub nsw i32 %19, %20
  %22 = add nsw i32 %21, 1
  %23 = icmp slt i32 %18, %22
  br i1 %23, label %24, label %55

24:                                               ; preds = %17
  store i32 0, i32* %5, align 4
  br label %25

25:                                               ; preds = %42, %24
  %26 = load i32, i32* %5, align 4
  %27 = load i32, i32* %1, align 4
  %28 = icmp slt i32 %26, %27
  br i1 %28, label %29, label %45

29:                                               ; preds = %25
  %30 = load i32, i32* %4, align 4
  %31 = load i32, i32* %5, align 4
  %32 = add nsw i32 %30, %31
  %33 = sext i32 %32 to i64
  %34 = getelementptr inbounds [500 x i8], [500 x i8]* %8, i64 0, i64 %33
  %35 = load i8, i8* %34, align 1
  %36 = load i32, i32* %4, align 4
  %37 = sext i32 %36 to i64
  %38 = getelementptr inbounds [500 x [6 x i8]], [500 x [6 x i8]]* %9, i64 0, i64 %37
  %39 = load i32, i32* %5, align 4
  %40 = sext i32 %39 to i64
  %41 = getelementptr inbounds [6 x i8], [6 x i8]* %38, i64 0, i64 %40
  store i8 %35, i8* %41, align 1
  br label %42

42:                                               ; preds = %29
  %43 = load i32, i32* %5, align 4
  %44 = add nsw i32 %43, 1
  store i32 %44, i32* %5, align 4
  br label %25

45:                                               ; preds = %25
  %46 = load i32, i32* %4, align 4
  %47 = sext i32 %46 to i64
  %48 = getelementptr inbounds [500 x [6 x i8]], [500 x [6 x i8]]* %9, i64 0, i64 %47
  %49 = load i32, i32* %5, align 4
  %50 = sext i32 %49 to i64
  %51 = getelementptr inbounds [6 x i8], [6 x i8]* %48, i64 0, i64 %50
  store i8 0, i8* %51, align 1
  br label %52

52:                                               ; preds = %45
  %53 = load i32, i32* %4, align 4
  %54 = add nsw i32 %53, 1
  store i32 %54, i32* %4, align 4
  br label %17

55:                                               ; preds = %17
  store i32 0, i32* %4, align 4
  br label %56

56:                                               ; preds = %111, %55
  %57 = load i32, i32* %4, align 4
  %58 = load i32, i32* %2, align 4
  %59 = load i32, i32* %1, align 4
  %60 = sub nsw i32 %58, %59
  %61 = icmp slt i32 %57, %60
  br i1 %61, label %62, label %114

62:                                               ; preds = %56
  %63 = load i32, i32* %4, align 4
  %64 = sext i32 %63 to i64
  %65 = getelementptr inbounds [500 x i32], [500 x i32]* %3, i64 0, i64 %64
  %66 = load i32, i32* %65, align 4
  %67 = icmp ne i32 %66, -1
  br i1 %67, label %68, label %110

68:                                               ; preds = %62
  %69 = load i32, i32* %4, align 4
  %70 = add nsw i32 %69, 1
  store i32 %70, i32* %5, align 4
  br label %71

71:                                               ; preds = %106, %68
  %72 = load i32, i32* %5, align 4
  %73 = load i32, i32* %2, align 4
  %74 = load i32, i32* %1, align 4
  %75 = sub nsw i32 %73, %74
  %76 = add nsw i32 %75, 1
  %77 = icmp slt i32 %72, %76
  br i1 %77, label %78, label %109

78:                                               ; preds = %71
  %79 = load i32, i32* %5, align 4
  %80 = sext i32 %79 to i64
  %81 = getelementptr inbounds [500 x i32], [500 x i32]* %3, i64 0, i64 %80
  %82 = load i32, i32* %81, align 4
  %83 = icmp ne i32 %82, -1
  br i1 %83, label %84, label %105

84:                                               ; preds = %78
  %85 = load i32, i32* %4, align 4
  %86 = sext i32 %85 to i64
  %87 = getelementptr inbounds [500 x [6 x i8]], [500 x [6 x i8]]* %9, i64 0, i64 %86
  %88 = getelementptr inbounds [6 x i8], [6 x i8]* %87, i64 0, i64 0
  %89 = load i32, i32* %5, align 4
  %90 = sext i32 %89 to i64
  %91 = getelementptr inbounds [500 x [6 x i8]], [500 x [6 x i8]]* %9, i64 0, i64 %90
  %92 = getelementptr inbounds [6 x i8], [6 x i8]* %91, i64 0, i64 0
  %93 = call i32 @strcmp(i8* %88, i8* %92) #4
  %94 = icmp eq i32 %93, 0
  br i1 %94, label %95, label %104

95:                                               ; preds = %84
  %96 = load i32, i32* %4, align 4
  %97 = sext i32 %96 to i64
  %98 = getelementptr inbounds [500 x i32], [500 x i32]* %3, i64 0, i64 %97
  %99 = load i32, i32* %98, align 4
  %100 = add nsw i32 %99, 1
  store i32 %100, i32* %98, align 4
  %101 = load i32, i32* %5, align 4
  %102 = sext i32 %101 to i64
  %103 = getelementptr inbounds [500 x i32], [500 x i32]* %3, i64 0, i64 %102
  store i32 -1, i32* %103, align 4
  br label %104

104:                                              ; preds = %95, %84
  br label %105

105:                                              ; preds = %104, %78
  br label %106

106:                                              ; preds = %105
  %107 = load i32, i32* %5, align 4
  %108 = add nsw i32 %107, 1
  store i32 %108, i32* %5, align 4
  br label %71

109:                                              ; preds = %71
  br label %110

110:                                              ; preds = %109, %62
  br label %111

111:                                              ; preds = %110
  %112 = load i32, i32* %4, align 4
  %113 = add nsw i32 %112, 1
  store i32 %113, i32* %4, align 4
  br label %56

114:                                              ; preds = %56
  %115 = getelementptr inbounds [500 x i32], [500 x i32]* %3, i64 0, i64 0
  %116 = load i32, i32* %115, align 16
  store i32 %116, i32* %7, align 4
  store i32 1, i32* %4, align 4
  br label %117

117:                                              ; preds = %137, %114
  %118 = load i32, i32* %4, align 4
  %119 = load i32, i32* %2, align 4
  %120 = load i32, i32* %1, align 4
  %121 = sub nsw i32 %119, %120
  %122 = add nsw i32 %121, 1
  %123 = icmp slt i32 %118, %122
  br i1 %123, label %124, label %140

124:                                              ; preds = %117
  %125 = load i32, i32* %4, align 4
  %126 = sext i32 %125 to i64
  %127 = getelementptr inbounds [500 x i32], [500 x i32]* %3, i64 0, i64 %126
  %128 = load i32, i32* %127, align 4
  %129 = load i32, i32* %7, align 4
  %130 = icmp sgt i32 %128, %129
  br i1 %130, label %131, label %136

131:                                              ; preds = %124
  %132 = load i32, i32* %4, align 4
  %133 = sext i32 %132 to i64
  %134 = getelementptr inbounds [500 x i32], [500 x i32]* %3, i64 0, i64 %133
  %135 = load i32, i32* %134, align 4
  store i32 %135, i32* %7, align 4
  br label %136

136:                                              ; preds = %131, %124
  br label %137

137:                                              ; preds = %136
  %138 = load i32, i32* %4, align 4
  %139 = add nsw i32 %138, 1
  store i32 %139, i32* %4, align 4
  br label %117

140:                                              ; preds = %117
  %141 = load i32, i32* %7, align 4
  %142 = icmp eq i32 %141, 0
  br i1 %142, label %143, label %145

143:                                              ; preds = %140
  %144 = call i32 (i8*, ...) @printf(i8* getelementptr inbounds ([4 x i8], [4 x i8]* @.str.2, i64 0, i64 0))
  br label %174

145:                                              ; preds = %140
  %146 = load i32, i32* %7, align 4
  %147 = add nsw i32 %146, 1
  %148 = call i32 (i8*, ...) @printf(i8* getelementptr inbounds ([4 x i8], [4 x i8]* @.str.3, i64 0, i64 0), i32 %147)
  store i32 0, i32* %4, align 4
  br label %149

149:                                              ; preds = %170, %145
  %150 = load i32, i32* %4, align 4
  %151 = load i32, i32* %2, align 4
  %152 = load i32, i32* %1, align 4
  %153 = sub nsw i32 %151, %152
  %154 = add nsw i32 %153, 1
  %155 = icmp slt i32 %150, %154
  br i1 %155, label %156, label %173

156:                                              ; preds = %149
  %157 = load i32, i32* %4, align 4
  %158 = sext i32 %157 to i64
  %159 = getelementptr inbounds [500 x i32], [500 x i32]* %3, i64 0, i64 %158
  %160 = load i32, i32* %159, align 4
  %161 = load i32, i32* %7, align 4
  %162 = icmp eq i32 %160, %161
  br i1 %162, label %163, label %169

163:                                              ; preds = %156
  %164 = load i32, i32* %4, align 4
  %165 = sext i32 %164 to i64
  %166 = getelementptr inbounds [500 x [6 x i8]], [500 x [6 x i8]]* %9, i64 0, i64 %165
  %167 = getelementptr inbounds [6 x i8], [6 x i8]* %166, i64 0, i64 0
  %168 = call i32 (i8*, ...) @printf(i8* getelementptr inbounds ([4 x i8], [4 x i8]* @.str.4, i64 0, i64 0), i8* %167)
  br label %169

169:                                              ; preds = %163, %156
  br label %170

170:                                              ; preds = %169
  %171 = load i32, i32* %4, align 4
  %172 = add nsw i32 %171, 1
  store i32 %172, i32* %4, align 4
  br label %149

173:                                              ; preds = %149
  br label %174

174:                                              ; preds = %173, %143
  ret void
}